target datalayout = "e-m:e-p270:32:32-p271:32:32-p272:64:64-i64:64-i128:128-f80:128-n8:16:32:64-S128"
target triple = "x86_64-unknown-linux-gnu"

%"class.dd::solver" = type { ptr, ptr, ptr, %"class.dd::solver::stats", %"struct.dd::solver::config", %"class.std::function", %class.ptr_vector, %class.ptr_vector, %class.ptr_vector, %class.vector.0, %class.ptr_vector, ptr, i8, i32, %class.svector, %class.svector }
%"class.dd::solver::stats" = type <{ i32, [4 x i8], double, i32, i32, i32, [4 x i8] }>
%"struct.dd::solver::config" = type { i32, i32, i32, i32, i32, i32, i8, i32, i32, i32, i32 }
%"class.std::function" = type { %"class.std::_Function_base", ptr }
%"class.std::_Function_base" = type { %"union.std::_Any_data", ptr }
%"union.std::_Any_data" = type { %"union.std::_Nocopy_types" }
%"union.std::_Nocopy_types" = type { { i64, i64 } }
%class.vector.0 = type { ptr }
%class.ptr_vector = type { %class.vector }
%class.vector = type { ptr }
%class.svector = type { %class.vector.1 }
%class.vector.1 = type { ptr }
%"class.dd::solver::equation" = type { i32, i32, %"class.dd::pdd", ptr }
%"class.dd::pdd" = type { i32, ptr }

@.str.7 = private unnamed_addr constant [115 x i8] c"generated/home/dtcxzyw/WorkSpace/Projects/compilers/llvm-opt-benchmark/bench/z3/z3/src/math/grobner/pdd_solver.cpp\00", align 1
@.str.10 = private unnamed_addr constant [29 x i8] c"UNEXPECTED CODE WAS REACHED.\00", align 1

; Function Attrs: mustprogress nounwind uwtable
define linkonce_odr hidden noundef i32 @_ZNK2dd6solver8equation5stateEv(ptr noundef nonnull align 8 dereferenceable(32) %this) #5 comdat align 2 {
entry:
  %this.addr = alloca ptr, align 8
  store ptr %this, ptr %this.addr, align 8
  %this1 = load ptr, ptr %this.addr, align 8
  %m_state = getelementptr inbounds %"class.dd::solver::equation", ptr %this1, i32 0, i32 0
  %0 = load i32, ptr %m_state, align 8
  ret i32 %0
}

; Function Attrs: mustprogress nounwind uwtable
define linkonce_odr hidden void @_ZN6vectorIPN2dd6solver8equationELb0EjE8pop_backEv(ptr noundef nonnull align 8 dereferenceable(8) %this) #5 comdat align 2 {
entry:
  %this.addr = alloca ptr, align 8
  store ptr %this, ptr %this.addr, align 8
  %this1 = load ptr, ptr %this.addr, align 8
  %m_data = getelementptr inbounds %class.vector, ptr %this1, i32 0, i32 0
  %0 = load ptr, ptr %m_data, align 8
  %arrayidx = getelementptr inbounds i32, ptr %0, i64 -1
  %1 = load i32, ptr %arrayidx, align 4
  %dec = add i32 %1, -1
  store i32 %dec, ptr %arrayidx, align 4
  ret void
}

; Function Attrs: mustprogress nounwind uwtable
define linkonce_odr hidden noundef nonnull align 8 dereferenceable(8) ptr @_ZN6vectorIPN2dd6solver8equationELb0EjEixEj(ptr noundef nonnull align 8 dereferenceable(8) %this, i32 noundef %idx) #5 comdat align 2 {
entry:
  %this.addr = alloca ptr, align 8
  %idx.addr = alloca i32, align 4
  store ptr %this, ptr %this.addr, align 8
  store i32 %idx, ptr %idx.addr, align 4
  %this1 = load ptr, ptr %this.addr, align 8
  %m_data = getelementptr inbounds %class.vector, ptr %this1, i32 0, i32 0
  %0 = load ptr, ptr %m_data, align 8
  %1 = load i32, ptr %idx.addr, align 4
  %idxprom = zext i32 %1 to i64
  %arrayidx = getelementptr inbounds ptr, ptr %0, i64 %idxprom
  ret ptr %arrayidx
}

; Function Attrs: mustprogress nounwind uwtable
define linkonce_odr hidden void @_ZN2dd6solver8equation9set_indexEj(ptr noundef nonnull align 8 dereferenceable(32) %this, i32 noundef %idx) #5 comdat align 2 {
entry:
  %this.addr = alloca ptr, align 8
  %idx.addr = alloca i32, align 4
  store ptr %this, ptr %this.addr, align 8
  store i32 %idx, ptr %idx.addr, align 4
  %this1 = load ptr, ptr %this.addr, align 8
  %0 = load i32, ptr %idx.addr, align 4
  %m_idx = getelementptr inbounds %"class.dd::solver::equation", ptr %this1, i32 0, i32 1
  store i32 %0, ptr %m_idx, align 4
  ret void
}

; Function Attrs: mustprogress nounwind uwtable
define linkonce_odr hidden noundef nonnull align 8 dereferenceable(8) ptr @_ZN6vectorIPN2dd6solver8equationELb0EjE4backEv(ptr noundef nonnull align 8 dereferenceable(8) %this) #5 comdat align 2 {
entry:
  %this.addr = alloca ptr, align 8
  store ptr %this, ptr %this.addr, align 8
  %this1 = load ptr, ptr %this.addr, align 8
  %call = call noundef i32 @_ZNK6vectorIPN2dd6solver8equationELb0EjE4sizeEv(ptr noundef nonnull align 8 dereferenceable(8) %this1)
  %sub = sub i32 %call, 1
  %call2 = call noundef nonnull align 8 dereferenceable(8) ptr @_ZN6vectorIPN2dd6solver8equationELb0EjEixEj(ptr noundef nonnull align 8 dereferenceable(8) %this1, i32 noundef %sub)
  ret ptr %call2
}

; Function Attrs: mustprogress nounwind uwtable
define linkonce_odr hidden noundef i32 @_ZNK6vectorIPN2dd6solver8equationELb0EjE4sizeEv(ptr noundef nonnull align 8 dereferenceable(8) %this) #5 comdat align 2 {
entry:
  %retval = alloca i32, align 4
  %this.addr = alloca ptr, align 8
  store ptr %this, ptr %this.addr, align 8
  %this1 = load ptr, ptr %this.addr, align 8
  %m_data = getelementptr inbounds %class.vector, ptr %this1, i32 0, i32 0
  %0 = load ptr, ptr %m_data, align 8
  %cmp = icmp eq ptr %0, null
  br i1 %cmp, label %if.then, label %if.end

if.then:                                          ; preds = %entry
  store i32 0, ptr %retval, align 4
  br label %return

if.end:                                           ; preds = %entry
  %m_data2 = getelementptr inbounds %class.vector, ptr %this1, i32 0, i32 0
  %1 = load ptr, ptr %m_data2, align 8
  %arrayidx = getelementptr inbounds i32, ptr %1, i64 -1
  %2 = load i32, ptr %arrayidx, align 4
  store i32 %2, ptr %retval, align 4
  br label %return

return:                                           ; preds = %if.end, %if.then
  %3 = load i32, ptr %retval, align 4
  ret i32 %3
}

; Function Attrs: mustprogress nounwind uwtable
define linkonce_odr hidden noundef i32 @_ZNK2dd6solver8equation3idxEv(ptr noundef nonnull align 8 dereferenceable(32) %this) #5 comdat align 2 {
entry:
  %this.addr = alloca ptr, align 8
  store ptr %this, ptr %this.addr, align 8
  %this1 = load ptr, ptr %this.addr, align 8
  %m_idx = getelementptr inbounds %"class.dd::solver::equation", ptr %this1, i32 0, i32 1
  %0 = load i32, ptr %m_idx, align 4
  ret i32 %0
}

; Function Attrs: mustprogress uwtable
define hidden noundef nonnull align 8 dereferenceable(8) ptr @_ZN2dd6solver9get_queueERKNS0_8equationE(ptr noundef nonnull align 8 dereferenceable(208) %this, ptr noundef nonnull align 8 dereferenceable(32) %eq) #4 align 2 {
entry:
  %retval = alloca ptr, align 8
  %this.addr = alloca ptr, align 8
  %eq.addr = alloca ptr, align 8
  store ptr %this, ptr %this.addr, align 8
  store ptr %eq, ptr %eq.addr, align 8
  %this1 = load ptr, ptr %this.addr, align 8
  %0 = load ptr, ptr %eq.addr, align 8
  %call = call noundef i32 @_ZNK2dd6solver8equation5stateEv(ptr noundef nonnull align 8 dereferenceable(32) %0)
  switch i32 %call, label %sw.epilog [
    i32 1, label %sw.bb
    i32 2, label %sw.bb2
    i32 0, label %sw.bb3
  ]

sw.bb:                                            ; preds = %entry
  %m_processed = getelementptr inbounds %"class.dd::solver", ptr %this1, i32 0, i32 7
  store ptr %m_processed, ptr %retval, align 8
  br label %return

sw.bb2:                                           ; preds = %entry
  %m_to_simplify = getelementptr inbounds %"class.dd::solver", ptr %this1, i32 0, i32 8
  store ptr %m_to_simplify, ptr %retval, align 8
  br label %return

sw.bb3:                                           ; preds = %entry
  %m_solved = getelementptr inbounds %"class.dd::solver", ptr %this1, i32 0, i32 6
  store ptr %m_solved, ptr %retval, align 8
  br label %return

sw.epilog:                                        ; preds = %entry
  call void @_Z26notify_assertion_violationPKciS0_(ptr noundef @.str.7, i32 noundef 433, ptr noundef @.str.10)
  call void @exit(i32 noundef 114) #17
  unreachable

return:                                           ; preds = %sw.bb3, %sw.bb2, %sw.bb
  %1 = load ptr, ptr %retval, align 8
  ret ptr %1
}

; Function Attrs: mustprogress uwtable
define hidden void @_ZN2dd6solver12pop_equationERNS0_8equationE(ptr noundef nonnull align 8 dereferenceable(208) %this, ptr noundef nonnull align 8 dereferenceable(32) %eq) #4 align 2 {
entry:
  %this.addr = alloca ptr, align 8
  %eq.addr = alloca ptr, align 8
  %v = alloca ptr, align 8
  %idx = alloca i32, align 4
  %eq2 = alloca ptr, align 8
  store ptr %this, ptr %this.addr, align 8
  store ptr %eq, ptr %eq.addr, align 8
  %this1 = load ptr, ptr %this.addr, align 8
  %0 = load ptr, ptr %eq.addr, align 8
  %call = call noundef nonnull align 8 dereferenceable(8) ptr @_ZN2dd6solver9get_queueERKNS0_8equationE(ptr noundef nonnull align 8 dereferenceable(208) %this1, ptr noundef nonnull align 8 dereferenceable(32) %0)
  store ptr %call, ptr %v, align 8
  %1 = load ptr, ptr %eq.addr, align 8
  %call2 = call noundef i32 @_ZNK2dd6solver8equation3idxEv(ptr noundef nonnull align 8 dereferenceable(32) %1)
  store i32 %call2, ptr %idx, align 4
  %2 = load i32, ptr %idx, align 4
  %3 = load ptr, ptr %v, align 8
  %call3 = call noundef i32 @_ZNK6vectorIPN2dd6solver8equationELb0EjE4sizeEv(ptr noundef nonnull align 8 dereferenceable(8) %3)
  %sub = sub i32 %call3, 1
  %cmp = icmp ne i32 %2, %sub
  br i1 %cmp, label %if.then, label %if.end

if.then:                                          ; preds = %entry
  %4 = load ptr, ptr %v, align 8
  %call4 = call noundef nonnull align 8 dereferenceable(8) ptr @_ZN6vectorIPN2dd6solver8equationELb0EjE4backEv(ptr noundef nonnull align 8 dereferenceable(8) %4)
  %5 = load ptr, ptr %call4, align 8
  store ptr %5, ptr %eq2, align 8
  %6 = load ptr, ptr %eq2, align 8
  %7 = load i32, ptr %idx, align 4
  call void @_ZN2dd6solver8equation9set_indexEj(ptr noundef nonnull align 8 dereferenceable(32) %6, i32 noundef %7)
  %8 = load ptr, ptr %eq2, align 8
  %9 = load ptr, ptr %v, align 8
  %10 = load i32, ptr %idx, align 4
  %call5 = call noundef nonnull align 8 dereferenceable(8) ptr @_ZN6vectorIPN2dd6solver8equationELb0EjEixEj(ptr noundef nonnull align 8 dereferenceable(8) %9, i32 noundef %10)
  store ptr %8, ptr %call5, align 8
  br label %if.end

if.end:                                           ; preds = %if.then, %entry
  %11 = load ptr, ptr %v, align 8
  call void @_ZN6vectorIPN2dd6solver8equationELb0EjE8pop_backEv(ptr noundef nonnull align 8 dereferenceable(8) %11)
  ret void
}