; Function Attrs: mustprogress uwtable
define hidden void @_ZN2dd6solver12pop_equationERNS0_8equationE(ptr nocapture noundef nonnull readonly align 8 dereferenceable(208) %this, ptr nocapture noundef nonnull readonly align 8 dereferenceable(32) %eq) local_unnamed_addr #5 align 2 {
entry:
  %0 = load i32, ptr %eq, align 8
  %1 = icmp ult i32 %0, 3
  br i1 %1, label %switch.lookup, label %sw.epilog.i

sw.epilog.i:                                      ; preds = %entry
  tail call void @_Z26notify_assertion_violationPKciS0_(ptr noundef nonnull @.str.7, i32 noundef 433, ptr noundef nonnull @.str.10)
  tail call void @exit(i32 noundef 114) #24
  unreachable

switch.lookup:                                    ; preds = %entry
  %2 = shl nuw nsw i32 %0, 3
  %3 = zext nneg i32 %2 to i64
  %4 = getelementptr i8, ptr %this, i64 %3
  %m_solved.i = getelementptr i8, ptr %4, i64 136
  %m_idx.i = getelementptr inbounds i8, ptr %eq, i64 4
  %5 = load i32, ptr %m_idx.i, align 4
  %6 = load ptr, ptr %m_solved.i, align 8
  %cmp.i = icmp eq ptr %6, null
  br i1 %cmp.i, label %_ZNK6vectorIPN2dd6solver8equationELb0EjE4sizeEv.exit, label %_ZNK6vectorIPN2dd6solver8equationELb0EjE4sizeEv.exit.thread

_ZNK6vectorIPN2dd6solver8equationELb0EjE4sizeEv.exit: ; preds = %switch.lookup
  %cmp.not = icmp ne i32 %5, -1
  tail call void @llvm.assume(i1 %cmp.not)
  br label %_ZN6vectorIPN2dd6solver8equationELb0EjE4backEv.exit

_ZNK6vectorIPN2dd6solver8equationELb0EjE4sizeEv.exit.thread: ; preds = %switch.lookup
  %arrayidx.i = getelementptr inbounds i8, ptr %6, i64 -4
  %7 = load i32, ptr %arrayidx.i, align 4
  %sub12 = add i32 %7, -1
  %cmp.not13 = icmp eq i32 %5, %sub12
  br i1 %cmp.not13, label %if.end, label %if.end.i.i

if.end.i.i:                                       ; preds = %_ZNK6vectorIPN2dd6solver8equationELb0EjE4sizeEv.exit.thread
  %8 = zext i32 %sub12 to i64
  br label %_ZN6vectorIPN2dd6solver8equationELb0EjE4backEv.exit

_ZN6vectorIPN2dd6solver8equationELb0EjE4backEv.exit: ; preds = %_ZNK6vectorIPN2dd6solver8equationELb0EjE4sizeEv.exit, %if.end.i.i
  %retval.0.i.i = phi i64 [ %8, %if.end.i.i ], [ 4294967295, %_ZNK6vectorIPN2dd6solver8equationELb0EjE4sizeEv.exit ]
  %arrayidx.i1.i = getelementptr inbounds ptr, ptr %6, i64 %retval.0.i.i
  %9 = load ptr, ptr %arrayidx.i1.i, align 8
  %m_idx.i8 = getelementptr inbounds i8, ptr %9, i64 4
  store i32 %5, ptr %m_idx.i8, align 4
  %10 = load ptr, ptr %m_solved.i, align 8
  %idxprom.i = zext i32 %5 to i64
  %arrayidx.i9 = getelementptr inbounds ptr, ptr %10, i64 %idxprom.i
  store ptr %9, ptr %arrayidx.i9, align 8
  %.pre = load ptr, ptr %m_solved.i, align 8
  br label %if.end

if.end:                                           ; preds = %_ZNK6vectorIPN2dd6solver8equationELb0EjE4sizeEv.exit.thread, %_ZN6vectorIPN2dd6solver8equationELb0EjE4backEv.exit
  %11 = phi ptr [ %6, %_ZNK6vectorIPN2dd6solver8equationELb0EjE4sizeEv.exit.thread ], [ %.pre, %_ZN6vectorIPN2dd6solver8equationELb0EjE4backEv.exit ]
  %arrayidx.i10 = getelementptr inbounds i8, ptr %11, i64 -4
  %12 = load i32, ptr %arrayidx.i10, align 4
  %dec.i = add i32 %12, -1
  store i32 %dec.i, ptr %arrayidx.i10, align 4
  ret void
}